target datalayout = "e-m:e-p270:32:32-p271:32:32-p272:64:64-i64:64-i128:128-f80:128-n8:16:32:64-S128"
target triple = "x86_64-pc-linux-gnu"

%struct.string_list = type { ptr, i64, i64, i8, ptr }
%struct.string_list_item = type { ptr, ptr }

@.str.4 = private unnamed_addr constant [72 x i8] c"internal error in string_list_split(): list->strdup_strings must be set\00", align 1
@.str.6 = private unnamed_addr constant [27 x i8] c"size_t overflow: %lu * %lu\00", align 1

; Function Attrs: inlinehint nounwind uwtable
define internal i64 @st_mult(i64 noundef %0, i64 noundef %1) #5 {
  %3 = alloca i64, align 8
  %4 = alloca i64, align 8
  store i64 %0, ptr %3, align 8, !tbaa !28
  store i64 %1, ptr %4, align 8, !tbaa !28
  %5 = load i64, ptr %3, align 8, !tbaa !28
  %6 = icmp ne i64 %5, 0
  br i1 %6, label %7, label %15

7:                                                ; preds = %2
  %8 = load i64, ptr %4, align 8, !tbaa !28
  %9 = load i64, ptr %3, align 8, !tbaa !28
  %10 = udiv i64 -1, %9
  %11 = icmp ugt i64 %8, %10
  br i1 %11, label %12, label %15

12:                                               ; preds = %7
  %13 = load i64, ptr %3, align 8, !tbaa !28
  %14 = load i64, ptr %4, align 8, !tbaa !28
  call void (ptr, ...) @die(ptr noundef @.str.6, i64 noundef %13, i64 noundef %14) #10
  unreachable

15:                                               ; preds = %7, %2
  %16 = load i64, ptr %3, align 8, !tbaa !28
  %17 = load i64, ptr %4, align 8, !tbaa !28
  %18 = mul i64 %16, %17
  ret i64 %18
}

; Function Attrs: nounwind uwtable
define dso_local ptr @string_list_append_nodup(ptr noundef %0, ptr noundef %1) #0 {
  %3 = alloca ptr, align 8
  %4 = alloca ptr, align 8
  %5 = alloca ptr, align 8
  store ptr %0, ptr %3, align 8, !tbaa !4
  store ptr %1, ptr %4, align 8, !tbaa !9
  call void @llvm.lifetime.start.p0(i64 8, ptr %5) #9
  br label %6

6:                                                ; preds = %2
  %7 = load ptr, ptr %3, align 8, !tbaa !4
  %8 = getelementptr inbounds nuw %struct.string_list, ptr %7, i32 0, i32 1
  %9 = load i64, ptr %8, align 8, !tbaa !17
  %10 = add i64 %9, 1
  %11 = load ptr, ptr %3, align 8, !tbaa !4
  %12 = getelementptr inbounds nuw %struct.string_list, ptr %11, i32 0, i32 2
  %13 = load i64, ptr %12, align 8, !tbaa !18
  %14 = icmp ugt i64 %10, %13
  br i1 %14, label %15, label %54

15:                                               ; preds = %6
  %16 = load ptr, ptr %3, align 8, !tbaa !4
  %17 = getelementptr inbounds nuw %struct.string_list, ptr %16, i32 0, i32 2
  %18 = load i64, ptr %17, align 8, !tbaa !18
  %19 = add i64 %18, 16
  %20 = mul i64 %19, 3
  %21 = udiv i64 %20, 2
  %22 = load ptr, ptr %3, align 8, !tbaa !4
  %23 = getelementptr inbounds nuw %struct.string_list, ptr %22, i32 0, i32 1
  %24 = load i64, ptr %23, align 8, !tbaa !17
  %25 = add i64 %24, 1
  %26 = icmp ult i64 %21, %25
  br i1 %26, label %27, label %34

27:                                               ; preds = %15
  %28 = load ptr, ptr %3, align 8, !tbaa !4
  %29 = getelementptr inbounds nuw %struct.string_list, ptr %28, i32 0, i32 1
  %30 = load i64, ptr %29, align 8, !tbaa !17
  %31 = add i64 %30, 1
  %32 = load ptr, ptr %3, align 8, !tbaa !4
  %33 = getelementptr inbounds nuw %struct.string_list, ptr %32, i32 0, i32 2
  store i64 %31, ptr %33, align 8, !tbaa !18
  br label %43

34:                                               ; preds = %15
  %35 = load ptr, ptr %3, align 8, !tbaa !4
  %36 = getelementptr inbounds nuw %struct.string_list, ptr %35, i32 0, i32 2
  %37 = load i64, ptr %36, align 8, !tbaa !18
  %38 = add i64 %37, 16
  %39 = mul i64 %38, 3
  %40 = udiv i64 %39, 2
  %41 = load ptr, ptr %3, align 8, !tbaa !4
  %42 = getelementptr inbounds nuw %struct.string_list, ptr %41, i32 0, i32 2
  store i64 %40, ptr %42, align 8, !tbaa !18
  br label %43

43:                                               ; preds = %34, %27
  %44 = load ptr, ptr %3, align 8, !tbaa !4
  %45 = getelementptr inbounds nuw %struct.string_list, ptr %44, i32 0, i32 0
  %46 = load ptr, ptr %45, align 8, !tbaa !13
  %47 = load ptr, ptr %3, align 8, !tbaa !4
  %48 = getelementptr inbounds nuw %struct.string_list, ptr %47, i32 0, i32 2
  %49 = load i64, ptr %48, align 8, !tbaa !18
  %50 = call i64 @st_mult(i64 noundef 16, i64 noundef %49)
  %51 = call ptr @xrealloc(ptr noundef %46, i64 noundef %50)
  %52 = load ptr, ptr %3, align 8, !tbaa !4
  %53 = getelementptr inbounds nuw %struct.string_list, ptr %52, i32 0, i32 0
  store ptr %51, ptr %53, align 8, !tbaa !13
  br label %54

54:                                               ; preds = %43, %6
  br label %55

55:                                               ; preds = %54
  br label %56

56:                                               ; preds = %55
  %57 = load ptr, ptr %3, align 8, !tbaa !4
  %58 = getelementptr inbounds nuw %struct.string_list, ptr %57, i32 0, i32 0
  %59 = load ptr, ptr %58, align 8, !tbaa !13
  %60 = load ptr, ptr %3, align 8, !tbaa !4
  %61 = getelementptr inbounds nuw %struct.string_list, ptr %60, i32 0, i32 1
  %62 = load i64, ptr %61, align 8, !tbaa !17
  %63 = add i64 %62, 1
  store i64 %63, ptr %61, align 8, !tbaa !17
  %64 = getelementptr inbounds nuw %struct.string_list_item, ptr %59, i64 %62
  store ptr %64, ptr %5, align 8, !tbaa !33
  %65 = load ptr, ptr %4, align 8, !tbaa !9
  %66 = load ptr, ptr %5, align 8, !tbaa !33
  %67 = getelementptr inbounds nuw %struct.string_list_item, ptr %66, i32 0, i32 0
  store ptr %65, ptr %67, align 8, !tbaa !19
  %68 = load ptr, ptr %5, align 8, !tbaa !33
  %69 = getelementptr inbounds nuw %struct.string_list_item, ptr %68, i32 0, i32 1
  store ptr null, ptr %69, align 8, !tbaa !21
  %70 = load ptr, ptr %5, align 8, !tbaa !33
  call void @llvm.lifetime.end.p0(i64 8, ptr %5) #9
  ret ptr %70
}

; Function Attrs: nounwind uwtable
define dso_local ptr @string_list_append(ptr noundef %0, ptr noundef %1) #0 {
  %3 = alloca ptr, align 8
  %4 = alloca ptr, align 8
  store ptr %0, ptr %3, align 8, !tbaa !4
  store ptr %1, ptr %4, align 8, !tbaa !9
  %5 = load ptr, ptr %3, align 8, !tbaa !4
  %6 = load ptr, ptr %3, align 8, !tbaa !4
  %7 = getelementptr inbounds nuw %struct.string_list, ptr %6, i32 0, i32 3
  %8 = load i8, ptr %7, align 8
  %9 = and i8 %8, 1
  %10 = zext i8 %9 to i32
  %11 = icmp ne i32 %10, 0
  br i1 %11, label %12, label %15

12:                                               ; preds = %2
  %13 = load ptr, ptr %4, align 8, !tbaa !9
  %14 = call ptr @xstrdup(ptr noundef %13)
  br label %17

15:                                               ; preds = %2
  %16 = load ptr, ptr %4, align 8, !tbaa !9
  br label %17

17:                                               ; preds = %15, %12
  %18 = phi ptr [ %14, %12 ], [ %16, %15 ]
  %19 = call ptr @string_list_append_nodup(ptr noundef %5, ptr noundef %18)
  ret ptr %19
}

; Function Attrs: nounwind uwtable
define dso_local i32 @string_list_split(ptr noundef %0, ptr noundef %1, i32 noundef %2, i32 noundef %3) #0 {
  %5 = alloca i32, align 4
  %6 = alloca ptr, align 8
  %7 = alloca ptr, align 8
  %8 = alloca i32, align 4
  %9 = alloca i32, align 4
  %10 = alloca i32, align 4
  %11 = alloca ptr, align 8
  %12 = alloca ptr, align 8
  %13 = alloca i32, align 4
  store ptr %0, ptr %6, align 8, !tbaa !4
  store ptr %1, ptr %7, align 8, !tbaa !9
  store i32 %2, ptr %8, align 4, !tbaa !11
  store i32 %3, ptr %9, align 4, !tbaa !11
  call void @llvm.lifetime.start.p0(i64 4, ptr %10) #9
  store i32 0, ptr %10, align 4, !tbaa !11
  call void @llvm.lifetime.start.p0(i64 8, ptr %11) #9
  %14 = load ptr, ptr %7, align 8, !tbaa !9
  store ptr %14, ptr %11, align 8, !tbaa !9
  call void @llvm.lifetime.start.p0(i64 8, ptr %12) #9
  %15 = load ptr, ptr %6, align 8, !tbaa !4
  %16 = getelementptr inbounds nuw %struct.string_list, ptr %15, i32 0, i32 3
  %17 = load i8, ptr %16, align 8
  %18 = and i8 %17, 1
  %19 = zext i8 %18 to i32
  %20 = icmp ne i32 %19, 0
  br i1 %20, label %22, label %21

21:                                               ; preds = %4
  call void (ptr, ...) @die(ptr noundef @.str.4) #10
  unreachable

22:                                               ; preds = %4
  br label %23

23:                                               ; preds = %60, %22
  %24 = load i32, ptr %10, align 4, !tbaa !11
  %25 = add nsw i32 %24, 1
  store i32 %25, ptr %10, align 4, !tbaa !11
  %26 = load i32, ptr %9, align 4, !tbaa !11
  %27 = icmp sge i32 %26, 0
  br i1 %27, label %28, label %37

28:                                               ; preds = %23
  %29 = load i32, ptr %10, align 4, !tbaa !11
  %30 = load i32, ptr %9, align 4, !tbaa !11
  %31 = icmp sgt i32 %29, %30
  br i1 %31, label %32, label %37

32:                                               ; preds = %28
  %33 = load ptr, ptr %6, align 8, !tbaa !4
  %34 = load ptr, ptr %11, align 8, !tbaa !9
  %35 = call ptr @string_list_append(ptr noundef %33, ptr noundef %34)
  %36 = load i32, ptr %10, align 4, !tbaa !11
  store i32 %36, ptr %5, align 4
  store i32 1, ptr %13, align 4
  br label %61

37:                                               ; preds = %28, %23
  %38 = load ptr, ptr %11, align 8, !tbaa !9
  %39 = load i32, ptr %8, align 4, !tbaa !11
  %40 = call ptr @strchr(ptr noundef %38, i32 noundef %39) #11
  store ptr %40, ptr %12, align 8, !tbaa !9
  %41 = load ptr, ptr %12, align 8, !tbaa !9
  %42 = icmp ne ptr %41, null
  br i1 %42, label %43, label %55

43:                                               ; preds = %37
  %44 = load ptr, ptr %6, align 8, !tbaa !4
  %45 = load ptr, ptr %11, align 8, !tbaa !9
  %46 = load ptr, ptr %12, align 8, !tbaa !9
  %47 = load ptr, ptr %11, align 8, !tbaa !9
  %48 = ptrtoint ptr %46 to i64
  %49 = ptrtoint ptr %47 to i64
  %50 = sub i64 %48, %49
  %51 = call ptr @xmemdupz(ptr noundef %45, i64 noundef %50)
  %52 = call ptr @string_list_append_nodup(ptr noundef %44, ptr noundef %51)
  %53 = load ptr, ptr %12, align 8, !tbaa !9
  %54 = getelementptr inbounds i8, ptr %53, i64 1
  store ptr %54, ptr %11, align 8, !tbaa !9
  br label %60

55:                                               ; preds = %37
  %56 = load ptr, ptr %6, align 8, !tbaa !4
  %57 = load ptr, ptr %11, align 8, !tbaa !9
  %58 = call ptr @string_list_append(ptr noundef %56, ptr noundef %57)
  %59 = load i32, ptr %10, align 4, !tbaa !11
  store i32 %59, ptr %5, align 4
  store i32 1, ptr %13, align 4
  br label %61

60:                                               ; preds = %43
  br label %23

61:                                               ; preds = %55, %32
  call void @llvm.lifetime.end.p0(i64 8, ptr %12) #9
  call void @llvm.lifetime.end.p0(i64 8, ptr %11) #9
  call void @llvm.lifetime.end.p0(i64 4, ptr %10) #9
  %62 = load i32, ptr %5, align 4
  ret i32 %62
}