; Function Attrs: nounwind uwtable
define dso_local range(i32 -2147483647, -2147483648) i32 @string_list_split(ptr noundef captures(none) %0, ptr noundef %1, i32 noundef %2, i32 noundef %3) local_unnamed_addr #4 {
  %5 = getelementptr inbounds nuw i8, ptr %0, i64 24
  %6 = load i8, ptr %5, align 8
  %7 = and i8 %6, 1
  %.not = icmp eq i8 %7, 0
  br i1 %.not, label %38, label %.preheader

.preheader:                                       ; preds = %4
  %or.cond39.not = icmp eq i32 %3, 0
  br i1 %or.cond39.not, label %._crit_edge.thread, label %.lr.ph

.lr.ph:                                           ; preds = %.preheader
  %8 = icmp slt i32 %3, 0
  %9 = getelementptr inbounds nuw i8, ptr %0, i64 8
  %10 = getelementptr inbounds nuw i8, ptr %0, i64 16
  br i1 %8, label %.lr.ph.split.us, label %.lr.ph.split.preheader

.lr.ph.split.preheader:                           ; preds = %.lr.ph
  %11 = add nuw i32 %3, 1
  br label %.lr.ph.split

.lr.ph.split.us:                                  ; preds = %.lr.ph
  %12 = tail call ptr @strchr(ptr noundef nonnull dereferenceable(1) %1, i32 noundef %2) #13
  %.not24.us46 = icmp eq ptr %12, null
  br i1 %.not24.us46, label %.split.us, label %.lr.ph48

.lr.ph48:                                         ; preds = %.lr.ph.split.us, %string_list_append_nodup.exit.us
  %13 = phi ptr [ %37, %string_list_append_nodup.exit.us ], [ %12, %.lr.ph.split.us ]
  %.02040.us47 = phi ptr [ %35, %string_list_append_nodup.exit.us ], [ %1, %.lr.ph.split.us ]
  %14 = phi i32 [ %36, %string_list_append_nodup.exit.us ], [ 1, %.lr.ph.split.us ]
  %15 = ptrtoint ptr %13 to i64
  %16 = ptrtoint ptr %.02040.us47 to i64
  %17 = sub i64 %15, %16
  %18 = tail call ptr @xmemdupz(ptr noundef nonnull %.02040.us47, i64 noundef %17) #11
  %19 = load i64, ptr %9, align 8, !tbaa !4
  %20 = add i64 %19, 1
  %21 = load i64, ptr %10, align 8, !tbaa !19
  %22 = icmp ugt i64 %20, %21
  br i1 %22, label %23, label %._crit_edge.i.us

._crit_edge.i.us:                                 ; preds = %.lr.ph48
  %.pre.i.us = load ptr, ptr %0, align 8, !tbaa !13
  br label %string_list_append_nodup.exit.us

23:                                               ; preds = %.lr.ph48
  %24 = mul i64 %21, 3
  %25 = add i64 %24, 48
  %26 = lshr i64 %25, 1
  %..i.us = tail call i64 @llvm.umax.i64(i64 %26, i64 %20)
  store i64 %..i.us, ptr %10, align 8, !tbaa !19
  %27 = icmp ugt i64 %..i.us, 1152921504606846975
  br i1 %27, label %.split44.us, label %st_mult.exit.i.us

st_mult.exit.i.us:                                ; preds = %23
  %28 = load ptr, ptr %0, align 8, !tbaa !13
  %29 = shl nuw i64 %..i.us, 4
  %30 = tail call ptr @xrealloc(ptr noundef %28, i64 noundef %29) #11
  store ptr %30, ptr %0, align 8, !tbaa !13
  %.pre19.i.us = load i64, ptr %9, align 8, !tbaa !4
  %.pre20.i.us = add i64 %.pre19.i.us, 1
  br label %string_list_append_nodup.exit.us

string_list_append_nodup.exit.us:                 ; preds = %st_mult.exit.i.us, %._crit_edge.i.us
  %.pre-phi.i.us = phi i64 [ %20, %._crit_edge.i.us ], [ %.pre20.i.us, %st_mult.exit.i.us ]
  %31 = phi i64 [ %19, %._crit_edge.i.us ], [ %.pre19.i.us, %st_mult.exit.i.us ]
  %32 = phi ptr [ %.pre.i.us, %._crit_edge.i.us ], [ %30, %st_mult.exit.i.us ]
  store i64 %.pre-phi.i.us, ptr %9, align 8, !tbaa !4
  %33 = getelementptr inbounds nuw %struct.string_list_item, ptr %32, i64 %31
  store ptr %18, ptr %33, align 8, !tbaa !14
  %34 = getelementptr inbounds nuw i8, ptr %33, i64 8
  store ptr null, ptr %34, align 8, !tbaa !20
  %35 = getelementptr inbounds nuw i8, ptr %13, i64 1
  %36 = add nuw nsw i32 %14, 1
  %37 = tail call ptr @strchr(ptr noundef nonnull dereferenceable(1) %35, i32 noundef %2) #13
  %.not24.us = icmp eq ptr %37, null
  br i1 %.not24.us, label %.split.us, label %.lr.ph48

38:                                               ; preds = %4
  tail call void (ptr, ...) @die(ptr noundef nonnull @.str.4) #12
  unreachable

._crit_edge:                                      ; preds = %string_list_append_nodup.exit
  %.pre = load i8, ptr %5, align 8
  %.pre62 = and i8 %.pre, 1
  %39 = icmp eq i8 %.pre62, 0
  br i1 %39, label %41, label %._crit_edge.thread

._crit_edge.thread:                               ; preds = %.preheader, %._crit_edge
  %.lcssa67 = phi i32 [ %11, %._crit_edge ], [ 1, %.preheader ]
  %.020.lcssa66 = phi ptr [ %84, %._crit_edge ], [ %1, %.preheader ]
  %40 = tail call ptr @xstrdup(ptr noundef %.020.lcssa66) #11
  br label %41

41:                                               ; preds = %._crit_edge.thread, %._crit_edge
  %.lcssa68 = phi i32 [ %.lcssa67, %._crit_edge.thread ], [ %11, %._crit_edge ]
  %42 = phi ptr [ %40, %._crit_edge.thread ], [ %84, %._crit_edge ]
  %43 = getelementptr inbounds nuw i8, ptr %0, i64 8
  %44 = load i64, ptr %43, align 8, !tbaa !4
  %45 = add i64 %44, 1
  %46 = getelementptr inbounds nuw i8, ptr %0, i64 16
  %47 = load i64, ptr %46, align 8, !tbaa !19
  %48 = icmp ugt i64 %45, %47
  br i1 %48, label %49, label %._crit_edge.i.i

._crit_edge.i.i:                                  ; preds = %41
  %.pre.i.i = load ptr, ptr %0, align 8, !tbaa !13
  br label %string_list_append.exit

49:                                               ; preds = %41
  %50 = mul i64 %47, 3
  %51 = add i64 %50, 48
  %52 = lshr i64 %51, 1
  %..i.i = tail call i64 @llvm.umax.i64(i64 %52, i64 %45)
  store i64 %..i.i, ptr %46, align 8, !tbaa !19
  %53 = icmp ugt i64 %..i.i, 1152921504606846975
  br i1 %53, label %54, label %st_mult.exit.i.i

54:                                               ; preds = %49
  tail call void (ptr, ...) @die(ptr noundef nonnull @.str.6, i64 noundef 16, i64 noundef %..i.i) #12
  unreachable

st_mult.exit.i.i:                                 ; preds = %49
  %55 = load ptr, ptr %0, align 8, !tbaa !13
  %56 = shl nuw i64 %..i.i, 4
  %57 = tail call ptr @xrealloc(ptr noundef %55, i64 noundef %56) #11
  store ptr %57, ptr %0, align 8, !tbaa !13
  %.pre19.i.i = load i64, ptr %43, align 8, !tbaa !4
  %.pre20.i.i = add i64 %.pre19.i.i, 1
  br label %string_list_append.exit

string_list_append.exit:                          ; preds = %._crit_edge.i.i, %st_mult.exit.i.i
  %.pre-phi.i.i = phi i64 [ %45, %._crit_edge.i.i ], [ %.pre20.i.i, %st_mult.exit.i.i ]
  %58 = phi i64 [ %44, %._crit_edge.i.i ], [ %.pre19.i.i, %st_mult.exit.i.i ]
  %59 = phi ptr [ %.pre.i.i, %._crit_edge.i.i ], [ %57, %st_mult.exit.i.i ]
  store i64 %.pre-phi.i.i, ptr %43, align 8, !tbaa !4
  %60 = getelementptr inbounds nuw %struct.string_list_item, ptr %59, i64 %58
  store ptr %42, ptr %60, align 8, !tbaa !14
  br label %108

.lr.ph.split:                                     ; preds = %.lr.ph.split.preheader, %string_list_append_nodup.exit
  %61 = phi i32 [ %85, %string_list_append_nodup.exit ], [ 1, %.lr.ph.split.preheader ]
  %.02040 = phi ptr [ %84, %string_list_append_nodup.exit ], [ %1, %.lr.ph.split.preheader ]
  %62 = tail call ptr @strchr(ptr noundef nonnull dereferenceable(1) %.02040, i32 noundef %2) #13
  %.not24 = icmp eq ptr %62, null
  br i1 %.not24, label %.split.us, label %63

63:                                               ; preds = %.lr.ph.split
  %64 = ptrtoint ptr %62 to i64
  %65 = ptrtoint ptr %.02040 to i64
  %66 = sub i64 %64, %65
  %67 = tail call ptr @xmemdupz(ptr noundef nonnull %.02040, i64 noundef %66) #11
  %68 = load i64, ptr %9, align 8, !tbaa !4
  %69 = add i64 %68, 1
  %70 = load i64, ptr %10, align 8, !tbaa !19
  %71 = icmp ugt i64 %69, %70
  br i1 %71, label %72, label %._crit_edge.i

._crit_edge.i:                                    ; preds = %63
  %.pre.i = load ptr, ptr %0, align 8, !tbaa !13
  br label %string_list_append_nodup.exit

72:                                               ; preds = %63
  %73 = mul i64 %70, 3
  %74 = add i64 %73, 48
  %75 = lshr i64 %74, 1
  %..i = tail call i64 @llvm.umax.i64(i64 %75, i64 %69)
  store i64 %..i, ptr %10, align 8, !tbaa !19
  %76 = icmp ugt i64 %..i, 1152921504606846975
  br i1 %76, label %.split44.us, label %st_mult.exit.i

.split44.us:                                      ; preds = %72, %23
  %.us-phi45 = phi i64 [ %..i.us, %23 ], [ %..i, %72 ]
  tail call void (ptr, ...) @die(ptr noundef nonnull @.str.6, i64 noundef 16, i64 noundef %.us-phi45) #12
  unreachable

st_mult.exit.i:                                   ; preds = %72
  %77 = load ptr, ptr %0, align 8, !tbaa !13
  %78 = shl nuw i64 %..i, 4
  %79 = tail call ptr @xrealloc(ptr noundef %77, i64 noundef %78) #11
  store ptr %79, ptr %0, align 8, !tbaa !13
  %.pre19.i = load i64, ptr %9, align 8, !tbaa !4
  %.pre20.i = add i64 %.pre19.i, 1
  br label %string_list_append_nodup.exit

string_list_append_nodup.exit:                    ; preds = %._crit_edge.i, %st_mult.exit.i
  %.pre-phi.i = phi i64 [ %69, %._crit_edge.i ], [ %.pre20.i, %st_mult.exit.i ]
  %80 = phi i64 [ %68, %._crit_edge.i ], [ %.pre19.i, %st_mult.exit.i ]
  %81 = phi ptr [ %.pre.i, %._crit_edge.i ], [ %79, %st_mult.exit.i ]
  store i64 %.pre-phi.i, ptr %9, align 8, !tbaa !4
  %82 = getelementptr inbounds nuw %struct.string_list_item, ptr %81, i64 %80
  store ptr %67, ptr %82, align 8, !tbaa !14
  %83 = getelementptr inbounds nuw i8, ptr %82, i64 8
  store ptr null, ptr %83, align 8, !tbaa !20
  %84 = getelementptr inbounds nuw i8, ptr %62, i64 1
  %85 = add nuw i32 %61, 1
  %exitcond.not = icmp eq i32 %61, %3
  br i1 %exitcond.not, label %._crit_edge, label %.lr.ph.split

.split.us:                                        ; preds = %.lr.ph.split, %string_list_append_nodup.exit.us, %.lr.ph.split.us
  %.us-phi = phi ptr [ %1, %.lr.ph.split.us ], [ %35, %string_list_append_nodup.exit.us ], [ %.02040, %.lr.ph.split ]
  %.us-phi42 = phi i32 [ 1, %.lr.ph.split.us ], [ %36, %string_list_append_nodup.exit.us ], [ %61, %.lr.ph.split ]
  %86 = load i8, ptr %5, align 8
  %87 = and i8 %86, 1
  %.not.i25 = icmp eq i8 %87, 0
  br i1 %.not.i25, label %90, label %88

88:                                               ; preds = %.split.us
  %89 = tail call ptr @xstrdup(ptr noundef nonnull %.us-phi) #11
  br label %90

90:                                               ; preds = %88, %.split.us
  %91 = phi ptr [ %89, %88 ], [ %.us-phi, %.split.us ]
  %92 = load i64, ptr %9, align 8, !tbaa !4
  %93 = add i64 %92, 1
  %94 = load i64, ptr %10, align 8, !tbaa !19
  %95 = icmp ugt i64 %93, %94
  br i1 %95, label %96, label %._crit_edge.i.i26

._crit_edge.i.i26:                                ; preds = %90
  %.pre.i.i27 = load ptr, ptr %0, align 8, !tbaa !13
  br label %string_list_append.exit33

96:                                               ; preds = %90
  %97 = mul i64 %94, 3
  %98 = add i64 %97, 48
  %99 = lshr i64 %98, 1
  %..i.i29 = tail call i64 @llvm.umax.i64(i64 %99, i64 %93)
  store i64 %..i.i29, ptr %10, align 8, !tbaa !19
  %100 = icmp ugt i64 %..i.i29, 1152921504606846975
  br i1 %100, label %101, label %st_mult.exit.i.i30

101:                                              ; preds = %96
  tail call void (ptr, ...) @die(ptr noundef nonnull @.str.6, i64 noundef 16, i64 noundef %..i.i29) #12
  unreachable

st_mult.exit.i.i30:                               ; preds = %96
  %102 = load ptr, ptr %0, align 8, !tbaa !13
  %103 = shl nuw i64 %..i.i29, 4
  %104 = tail call ptr @xrealloc(ptr noundef %102, i64 noundef %103) #11
  store ptr %104, ptr %0, align 8, !tbaa !13
  %.pre19.i.i31 = load i64, ptr %9, align 8, !tbaa !4
  %.pre20.i.i32 = add i64 %.pre19.i.i31, 1
  br label %string_list_append.exit33

string_list_append.exit33:                        ; preds = %._crit_edge.i.i26, %st_mult.exit.i.i30
  %.pre-phi.i.i28 = phi i64 [ %93, %._crit_edge.i.i26 ], [ %.pre20.i.i32, %st_mult.exit.i.i30 ]
  %105 = phi i64 [ %92, %._crit_edge.i.i26 ], [ %.pre19.i.i31, %st_mult.exit.i.i30 ]
  %106 = phi ptr [ %.pre.i.i27, %._crit_edge.i.i26 ], [ %104, %st_mult.exit.i.i30 ]
  store i64 %.pre-phi.i.i28, ptr %9, align 8, !tbaa !4
  %107 = getelementptr inbounds nuw %struct.string_list_item, ptr %106, i64 %105
  store ptr %91, ptr %107, align 8, !tbaa !14
  br label %108

108:                                              ; preds = %string_list_append.exit33, %string_list_append.exit
  %.sink78 = phi ptr [ %107, %string_list_append.exit33 ], [ %60, %string_list_append.exit ]
  %109 = phi i32 [ %.us-phi42, %string_list_append.exit33 ], [ %.lcssa68, %string_list_append.exit ]
  %110 = getelementptr inbounds nuw i8, ptr %.sink78, i64 8
  store ptr null, ptr %110, align 8, !tbaa !20
  ret i32 %109
}